target datalayout = "e-m:e-p270:32:32-p271:32:32-p272:64:64-i64:64-i128:128-f80:128-n8:16:32:64-S128"
target triple = "x86_64-unknown-linux-gnu"

%class.b3AlignedObjectArray.12 = type <{ %class.b3AlignedAllocator.13, [3 x i8], i32, i32, [4 x i8], ptr, i8, [7 x i8] }>
%class.b3AlignedAllocator.13 = type { i8 }
%class.b3GpuSapBroadphase = type { %class.b3GpuBroadphaseInterface, ptr, ptr, ptr, ptr, ptr, ptr, ptr, ptr, ptr, ptr, [3 x [2 x %class.b3AlignedObjectArray]], [3 x [2 x %class.b3AlignedObjectArray.0]], %class.b3OpenCLArray, %class.b3OpenCLArray, %class.b3OpenCLArray, %class.b3OpenCLArray, %class.b3OpenCLArray, %class.b3OpenCLArray, %class.b3OpenCLArray.4, %class.b3OpenCLArray.4, %class.b3OpenCLArray.4, %class.b3OpenCLArray.4, %class.b3OpenCLArray.4, %class.b3OpenCLArray.4, %class.b3OpenCLArray.6, %class.b3OpenCLArray.6, %class.b3OpenCLArray.8, %class.b3OpenCLArray.8, i32, [4 x i8], %class.b3OpenCLArray.8, %class.b3OpenCLArray.10, %class.b3AlignedObjectArray.12, %class.b3OpenCLArray.16, %class.b3OpenCLArray.16, %class.b3OpenCLArray.16, %class.b3OpenCLArray.8, %class.b3AlignedObjectArray.18, %class.b3OpenCLArray.8, %class.b3AlignedObjectArray.18, %class.b3OpenCLArray.6, %class.b3OpenCLArray.4, %class.b3OpenCLArray.10, ptr }
%class.b3GpuBroadphaseInterface = type { ptr }
%class.b3AlignedObjectArray = type <{ %class.b3AlignedAllocator, [3 x i8], i32, i32, [4 x i8], ptr, i8, [7 x i8] }>
%class.b3AlignedAllocator = type { i8 }
%class.b3AlignedObjectArray.0 = type <{ %class.b3AlignedAllocator.1, [3 x i8], i32, i32, [4 x i8], ptr, i8, [7 x i8] }>
%class.b3AlignedAllocator.1 = type { i8 }
%class.b3OpenCLArray = type <{ ptr, i64, i64, ptr, ptr, ptr, i8, i8, [6 x i8] }>
%class.b3OpenCLArray.16 = type <{ ptr, i64, i64, ptr, ptr, ptr, i8, i8, [6 x i8] }>
%class.b3OpenCLArray.8 = type <{ ptr, i64, i64, ptr, ptr, ptr, i8, i8, [6 x i8] }>
%class.b3AlignedObjectArray.18 = type <{ %class.b3AlignedAllocator.19, [3 x i8], i32, i32, [4 x i8], ptr, i8, [7 x i8] }>
%class.b3AlignedAllocator.19 = type { i8 }
%class.b3OpenCLArray.6 = type <{ ptr, i64, i64, ptr, ptr, ptr, i8, i8, [6 x i8] }>
%class.b3OpenCLArray.4 = type <{ ptr, i64, i64, ptr, ptr, ptr, i8, i8, [6 x i8] }>
%class.b3OpenCLArray.10 = type <{ ptr, i64, i64, ptr, ptr, ptr, i8, i8, [6 x i8] }>
%struct.b3Aabb = type { %union.anon.23, %union.anon.25 }
%union.anon.23 = type { [4 x float] }
%union.anon.25 = type { [4 x float] }
%struct.b3SapAabb = type { %struct.b3Aabb }
%class.b3Vector3 = type { %union.anon.24 }
%union.anon.24 = type { [4 x float] }

; Function Attrs: mustprogress nounwind uwtable
define linkonce_odr dso_local noundef i32 @_ZN20b3AlignedObjectArrayI9b3SapAabbE9allocSizeEi(ptr noundef nonnull align 8 dereferenceable(25) %this, i32 noundef %size) #1 comdat align 2 {
entry:
  %this.addr = alloca ptr, align 8
  %size.addr = alloca i32, align 4
  store ptr %this, ptr %this.addr, align 8
  store i32 %size, ptr %size.addr, align 4
  %0 = load i32, ptr %size.addr, align 4
  %tobool = icmp ne i32 %0, 0
  br i1 %tobool, label %cond.true, label %cond.false

cond.true:                                        ; preds = %entry
  %1 = load i32, ptr %size.addr, align 4
  %mul = mul nsw i32 %1, 2
  br label %cond.end

cond.false:                                       ; preds = %entry
  br label %cond.end

cond.end:                                         ; preds = %cond.false, %cond.true
  %cond = phi i32 [ %mul, %cond.true ], [ 1, %cond.false ]
  ret i32 %cond
}

; Function Attrs: mustprogress nounwind uwtable
define linkonce_odr dso_local noundef i32 @_ZNK20b3AlignedObjectArrayI9b3SapAabbE8capacityEv(ptr noundef nonnull align 8 dereferenceable(25) %this) #1 comdat align 2 {
entry:
  %this.addr = alloca ptr, align 8
  store ptr %this, ptr %this.addr, align 8
  %this1 = load ptr, ptr %this.addr, align 8
  %m_capacity = getelementptr inbounds %class.b3AlignedObjectArray.12, ptr %this1, i32 0, i32 3
  %0 = load i32, ptr %m_capacity, align 8
  ret i32 %0
}

; Function Attrs: mustprogress nounwind uwtable
define linkonce_odr dso_local noundef i32 @_ZN20b3AlignedObjectArrayIiE9allocSizeEi(ptr noundef nonnull align 8 dereferenceable(25) %this, i32 noundef %size) #1 comdat align 2 {
entry:
  %this.addr = alloca ptr, align 8
  %size.addr = alloca i32, align 4
  store ptr %this, ptr %this.addr, align 8
  store i32 %size, ptr %size.addr, align 4
  %0 = load i32, ptr %size.addr, align 4
  %tobool = icmp ne i32 %0, 0
  br i1 %tobool, label %cond.true, label %cond.false

cond.true:                                        ; preds = %entry
  %1 = load i32, ptr %size.addr, align 4
  %mul = mul nsw i32 %1, 2
  br label %cond.end

cond.false:                                       ; preds = %entry
  br label %cond.end

cond.end:                                         ; preds = %cond.false, %cond.true
  %cond = phi i32 [ %mul, %cond.true ], [ 1, %cond.false ]
  ret i32 %cond
}

; Function Attrs: mustprogress nounwind uwtable
define linkonce_odr dso_local noundef i32 @_ZNK20b3AlignedObjectArrayIiE8capacityEv(ptr noundef nonnull align 8 dereferenceable(25) %this) #1 comdat align 2 {
entry:
  %this.addr = alloca ptr, align 8
  store ptr %this, ptr %this.addr, align 8
  %this1 = load ptr, ptr %this.addr, align 8
  %m_capacity = getelementptr inbounds %class.b3AlignedObjectArray.18, ptr %this1, i32 0, i32 3
  %0 = load i32, ptr %m_capacity, align 8
  ret i32 %0
}

; Function Attrs: mustprogress nounwind uwtable
define linkonce_odr dso_local noundef i32 @_ZNK20b3AlignedObjectArrayIiE4sizeEv(ptr noundef nonnull align 8 dereferenceable(25) %this) #1 comdat align 2 {
entry:
  %this.addr = alloca ptr, align 8
  store ptr %this, ptr %this.addr, align 8
  %this1 = load ptr, ptr %this.addr, align 8
  %m_size = getelementptr inbounds %class.b3AlignedObjectArray.18, ptr %this1, i32 0, i32 2
  %0 = load i32, ptr %m_size, align 4
  ret i32 %0
}

; Function Attrs: mustprogress uwtable
define linkonce_odr dso_local void @_ZN20b3AlignedObjectArrayI9b3SapAabbE9push_backERKS0_(ptr noundef nonnull align 8 dereferenceable(25) %this, ptr noundef nonnull align 16 dereferenceable(32) %_Val) #0 comdat align 2 {
entry:
  %this.addr = alloca ptr, align 8
  %_Val.addr = alloca ptr, align 8
  %sz = alloca i32, align 4
  store ptr %this, ptr %this.addr, align 8
  store ptr %_Val, ptr %_Val.addr, align 8
  %this1 = load ptr, ptr %this.addr, align 8
  %call = call noundef i32 @_ZNK20b3AlignedObjectArrayI9b3SapAabbE4sizeEv(ptr noundef nonnull align 8 dereferenceable(25) %this1)
  store i32 %call, ptr %sz, align 4
  %0 = load i32, ptr %sz, align 4
  %call2 = call noundef i32 @_ZNK20b3AlignedObjectArrayI9b3SapAabbE8capacityEv(ptr noundef nonnull align 8 dereferenceable(25) %this1)
  %cmp = icmp eq i32 %0, %call2
  br i1 %cmp, label %if.then, label %if.end

if.then:                                          ; preds = %entry
  %call3 = call noundef i32 @_ZNK20b3AlignedObjectArrayI9b3SapAabbE4sizeEv(ptr noundef nonnull align 8 dereferenceable(25) %this1)
  %call4 = call noundef i32 @_ZN20b3AlignedObjectArrayI9b3SapAabbE9allocSizeEi(ptr noundef nonnull align 8 dereferenceable(25) %this1, i32 noundef %call3)
  call void @_ZN20b3AlignedObjectArrayI9b3SapAabbE7reserveEi(ptr noundef nonnull align 8 dereferenceable(25) %this1, i32 noundef %call4)
  br label %if.end

if.end:                                           ; preds = %if.then, %entry
  %m_data = getelementptr inbounds %class.b3AlignedObjectArray.12, ptr %this1, i32 0, i32 5
  %1 = load ptr, ptr %m_data, align 8
  %m_size = getelementptr inbounds %class.b3AlignedObjectArray.12, ptr %this1, i32 0, i32 2
  %2 = load i32, ptr %m_size, align 4
  %idxprom = sext i32 %2 to i64
  %arrayidx = getelementptr inbounds %struct.b3SapAabb, ptr %1, i64 %idxprom
  %3 = load ptr, ptr %_Val.addr, align 8
  call void @llvm.memcpy.p0.p0.i64(ptr align 16 %arrayidx, ptr align 16 %3, i64 32, i1 false)
  %m_size5 = getelementptr inbounds %class.b3AlignedObjectArray.12, ptr %this1, i32 0, i32 2
  %4 = load i32, ptr %m_size5, align 4
  %inc = add nsw i32 %4, 1
  store i32 %inc, ptr %m_size5, align 4
  ret void
}

; Function Attrs: mustprogress uwtable
define linkonce_odr dso_local void @_ZN20b3AlignedObjectArrayIiE9push_backERKi(ptr noundef nonnull align 8 dereferenceable(25) %this, ptr noundef nonnull align 4 dereferenceable(4) %_Val) #0 comdat align 2 {
entry:
  %this.addr = alloca ptr, align 8
  %_Val.addr = alloca ptr, align 8
  %sz = alloca i32, align 4
  store ptr %this, ptr %this.addr, align 8
  store ptr %_Val, ptr %_Val.addr, align 8
  %this1 = load ptr, ptr %this.addr, align 8
  %call = call noundef i32 @_ZNK20b3AlignedObjectArrayIiE4sizeEv(ptr noundef nonnull align 8 dereferenceable(25) %this1)
  store i32 %call, ptr %sz, align 4
  %0 = load i32, ptr %sz, align 4
  %call2 = call noundef i32 @_ZNK20b3AlignedObjectArrayIiE8capacityEv(ptr noundef nonnull align 8 dereferenceable(25) %this1)
  %cmp = icmp eq i32 %0, %call2
  br i1 %cmp, label %if.then, label %if.end

if.then:                                          ; preds = %entry
  %call3 = call noundef i32 @_ZNK20b3AlignedObjectArrayIiE4sizeEv(ptr noundef nonnull align 8 dereferenceable(25) %this1)
  %call4 = call noundef i32 @_ZN20b3AlignedObjectArrayIiE9allocSizeEi(ptr noundef nonnull align 8 dereferenceable(25) %this1, i32 noundef %call3)
  call void @_ZN20b3AlignedObjectArrayIiE7reserveEi(ptr noundef nonnull align 8 dereferenceable(25) %this1, i32 noundef %call4)
  br label %if.end

if.end:                                           ; preds = %if.then, %entry
  %m_data = getelementptr inbounds %class.b3AlignedObjectArray.18, ptr %this1, i32 0, i32 5
  %1 = load ptr, ptr %m_data, align 8
  %m_size = getelementptr inbounds %class.b3AlignedObjectArray.18, ptr %this1, i32 0, i32 2
  %2 = load i32, ptr %m_size, align 4
  %idxprom = sext i32 %2 to i64
  %arrayidx = getelementptr inbounds i32, ptr %1, i64 %idxprom
  %3 = load ptr, ptr %_Val.addr, align 8
  %4 = load i32, ptr %3, align 4
  store i32 %4, ptr %arrayidx, align 4
  %m_size5 = getelementptr inbounds %class.b3AlignedObjectArray.18, ptr %this1, i32 0, i32 2
  %5 = load i32, ptr %m_size5, align 4
  %inc = add nsw i32 %5, 1
  store i32 %inc, ptr %m_size5, align 4
  ret void
}

; Function Attrs: mustprogress nounwind uwtable
define linkonce_odr dso_local noundef i32 @_ZNK20b3AlignedObjectArrayI9b3SapAabbE4sizeEv(ptr noundef nonnull align 8 dereferenceable(25) %this) #1 comdat align 2 {
entry:
  %this.addr = alloca ptr, align 8
  store ptr %this, ptr %this.addr, align 8
  %this1 = load ptr, ptr %this.addr, align 8
  %m_size = getelementptr inbounds %class.b3AlignedObjectArray.12, ptr %this1, i32 0, i32 2
  %0 = load i32, ptr %m_size, align 4
  ret i32 %0
}

; Function Attrs: mustprogress nounwind uwtable
define linkonce_odr dso_local noundef ptr @_ZNK9b3Vector3cvPKfEv(ptr noundef nonnull align 16 dereferenceable(16) %this) #1 comdat align 2 {
entry:
  %this.addr = alloca ptr, align 8
  store ptr %this, ptr %this.addr, align 8
  %this1 = load ptr, ptr %this.addr, align 8
  %0 = getelementptr inbounds %class.b3Vector3, ptr %this1, i32 0, i32 0
  %arrayidx = getelementptr inbounds [4 x float], ptr %0, i64 0, i64 0
  ret ptr %arrayidx
}

; Function Attrs: mustprogress uwtable
define dso_local void @_ZN18b3GpuSapBroadphase11createProxyERK9b3Vector3S2_iii(ptr noundef nonnull align 8 dereferenceable(2040) %this, ptr noundef nonnull align 16 dereferenceable(16) %aabbMin, ptr noundef nonnull align 16 dereferenceable(16) %aabbMax, i32 noundef %userPtr, i32 noundef %collisionFilterGroup, i32 noundef %collisionFilterMask) unnamed_addr #0 align 2 {
entry:
  %this.addr = alloca ptr, align 8
  %aabbMin.addr = alloca ptr, align 8
  %aabbMax.addr = alloca ptr, align 8
  %userPtr.addr = alloca i32, align 4
  %collisionFilterGroup.addr = alloca i32, align 4
  %collisionFilterMask.addr = alloca i32, align 4
  %index = alloca i32, align 4
  %aabb = alloca %struct.b3SapAabb, align 16
  %i = alloca i32, align 4
  %ref.tmp = alloca i32, align 4
  store ptr %this, ptr %this.addr, align 8
  store ptr %aabbMin, ptr %aabbMin.addr, align 8
  store ptr %aabbMax, ptr %aabbMax.addr, align 8
  store i32 %userPtr, ptr %userPtr.addr, align 4
  store i32 %collisionFilterGroup, ptr %collisionFilterGroup.addr, align 4
  store i32 %collisionFilterMask, ptr %collisionFilterMask.addr, align 4
  %this1 = load ptr, ptr %this.addr, align 8
  %0 = load i32, ptr %userPtr.addr, align 4
  store i32 %0, ptr %index, align 4
  store i32 0, ptr %i, align 4
  br label %for.cond

for.cond:                                         ; preds = %for.inc, %entry
  %1 = load i32, ptr %i, align 4
  %cmp = icmp slt i32 %1, 4
  br i1 %cmp, label %for.body, label %for.end

for.body:                                         ; preds = %for.cond
  %2 = load ptr, ptr %aabbMin.addr, align 8
  %call = call noundef ptr @_ZNK9b3Vector3cvPKfEv(ptr noundef nonnull align 16 dereferenceable(16) %2)
  %3 = load i32, ptr %i, align 4
  %idxprom = sext i32 %3 to i64
  %arrayidx = getelementptr inbounds float, ptr %call, i64 %idxprom
  %4 = load float, ptr %arrayidx, align 4
  %5 = getelementptr inbounds %struct.b3Aabb, ptr %aabb, i32 0, i32 0
  %6 = load i32, ptr %i, align 4
  %idxprom2 = sext i32 %6 to i64
  %arrayidx3 = getelementptr inbounds [4 x float], ptr %5, i64 0, i64 %idxprom2
  store float %4, ptr %arrayidx3, align 4
  %7 = load ptr, ptr %aabbMax.addr, align 8
  %call4 = call noundef ptr @_ZNK9b3Vector3cvPKfEv(ptr noundef nonnull align 16 dereferenceable(16) %7)
  %8 = load i32, ptr %i, align 4
  %idxprom5 = sext i32 %8 to i64
  %arrayidx6 = getelementptr inbounds float, ptr %call4, i64 %idxprom5
  %9 = load float, ptr %arrayidx6, align 4
  %10 = getelementptr inbounds %struct.b3Aabb, ptr %aabb, i32 0, i32 1
  %11 = load i32, ptr %i, align 4
  %idxprom7 = sext i32 %11 to i64
  %arrayidx8 = getelementptr inbounds [4 x float], ptr %10, i64 0, i64 %idxprom7
  store float %9, ptr %arrayidx8, align 4
  br label %for.inc

for.inc:                                          ; preds = %for.body
  %12 = load i32, ptr %i, align 4
  %inc = add nsw i32 %12, 1
  store i32 %inc, ptr %i, align 4
  br label %for.cond, !llvm.loop !49

for.end:                                          ; preds = %for.cond
  %13 = load i32, ptr %index, align 4
  %14 = getelementptr inbounds %struct.b3Aabb, ptr %aabb, i32 0, i32 0
  %arrayidx9 = getelementptr inbounds [4 x i32], ptr %14, i64 0, i64 3
  store i32 %13, ptr %arrayidx9, align 4
  %m_allAabbsCPU = getelementptr inbounds %class.b3GpuSapBroadphase, ptr %this1, i32 0, i32 33
  %call10 = call noundef i32 @_ZNK20b3AlignedObjectArrayI9b3SapAabbE4sizeEv(ptr noundef nonnull align 8 dereferenceable(25) %m_allAabbsCPU)
  %15 = getelementptr inbounds %struct.b3Aabb, ptr %aabb, i32 0, i32 1
  %arrayidx11 = getelementptr inbounds [4 x i32], ptr %15, i64 0, i64 3
  store i32 %call10, ptr %arrayidx11, align 4
  %m_smallAabbsMappingCPU = getelementptr inbounds %class.b3GpuSapBroadphase, ptr %this1, i32 0, i32 38
  %m_allAabbsCPU12 = getelementptr inbounds %class.b3GpuSapBroadphase, ptr %this1, i32 0, i32 33
  %call13 = call noundef i32 @_ZNK20b3AlignedObjectArrayI9b3SapAabbE4sizeEv(ptr noundef nonnull align 8 dereferenceable(25) %m_allAabbsCPU12)
  store i32 %call13, ptr %ref.tmp, align 4
  call void @_ZN20b3AlignedObjectArrayIiE9push_backERKi(ptr noundef nonnull align 8 dereferenceable(25) %m_smallAabbsMappingCPU, ptr noundef nonnull align 4 dereferenceable(4) %ref.tmp)
  %m_allAabbsCPU14 = getelementptr inbounds %class.b3GpuSapBroadphase, ptr %this1, i32 0, i32 33
  call void @_ZN20b3AlignedObjectArrayI9b3SapAabbE9push_backERKS0_(ptr noundef nonnull align 8 dereferenceable(25) %m_allAabbsCPU14, ptr noundef nonnull align 16 dereferenceable(32) %aabb)
  ret void
}